target datalayout = "e-m:e-p270:32:32-p271:32:32-p272:64:64-i64:64-i128:128-f80:128-n8:16:32:64-S128"
target triple = "x86_64-pc-linux-gnu"

%class.Type = type { i32, ptr, i32, %"class.std::vector.28", %"class.std::vector.33", i32, i8, i8, i8, i8, i8, %"class.std::vector.38", %"class.std::vector.43" }
%"class.std::vector.28" = type { %"struct.std::_Vector_base.29" }
%"struct.std::_Vector_base.29" = type { %"struct.std::_Vector_base<unsigned int, std::allocator<unsigned int>>::_Vector_impl" }
%"struct.std::_Vector_base<unsigned int, std::allocator<unsigned int>>::_Vector_impl" = type { %"struct.std::_Vector_base<unsigned int, std::allocator<unsigned int>>::_Vector_impl_data" }
%"struct.std::_Vector_base<unsigned int, std::allocator<unsigned int>>::_Vector_impl_data" = type { ptr, ptr, ptr }
%"class.std::vector.33" = type { %"struct.std::_Vector_base.34" }
%"struct.std::_Vector_base.34" = type { %"struct.std::_Vector_base<const Type *, std::allocator<const Type *>>::_Vector_impl" }
%"struct.std::_Vector_base<const Type *, std::allocator<const Type *>>::_Vector_impl" = type { %"struct.std::_Vector_base<const Type *, std::allocator<const Type *>>::_Vector_impl_data" }
%"struct.std::_Vector_base<const Type *, std::allocator<const Type *>>::_Vector_impl_data" = type { ptr, ptr, ptr }
%"class.std::vector.38" = type { %"struct.std::_Vector_base.39" }
%"struct.std::_Vector_base.39" = type { %"struct.std::_Vector_base<CVQualifiers, std::allocator<CVQualifiers>>::_Vector_impl" }
%"struct.std::_Vector_base<CVQualifiers, std::allocator<CVQualifiers>>::_Vector_impl" = type { %"struct.std::_Vector_base<CVQualifiers, std::allocator<CVQualifiers>>::_Vector_impl_data" }
%"struct.std::_Vector_base<CVQualifiers, std::allocator<CVQualifiers>>::_Vector_impl_data" = type { ptr, ptr, ptr }
%"class.std::vector.43" = type { %"struct.std::_Vector_base.44" }
%"struct.std::_Vector_base.44" = type { %"struct.std::_Vector_base<int, std::allocator<int>>::_Vector_impl" }
%"struct.std::_Vector_base<int, std::allocator<int>>::_Vector_impl" = type { %"struct.std::_Vector_base<int, std::allocator<int>>::_Vector_impl_data" }
%"struct.std::_Vector_base<int, std::allocator<int>>::_Vector_impl_data" = type { ptr, ptr, ptr }

@_ZN8Variable17var_attr_generateE = dso_local global i8 0, align 1
@_ZN5Error8r_error_E = external global i32, align 4
@_ZN8VariableC1ERKNSt7__cxx1112basic_stringIcSt11char_traitsIcESaIcEEEPK4TypePK10ExpressionPK12CVQualifiers = dso_local unnamed_addr alias void (ptr, ptr, ptr, ptr, ptr), ptr @_ZN8VariableC2ERKNSt7__cxx1112basic_stringIcSt11char_traitsIcESaIcEEEPK4TypePK10ExpressionPK12CVQualifiers

; Function Attrs: mustprogress nounwind uwtable
define linkonce_odr dso_local noundef i32 @_ZN5Error9get_errorEv() #4 comdat align 2 {
  %1 = load i32, ptr @_ZN5Error8r_error_E, align 4, !tbaa !74
  ret i32 %1
}

; Function Attrs: mustprogress nounwind uwtable
define linkonce_odr dso_local noundef zeroext i1 @_ZNK4Type12is_aggregateEv(ptr noundef nonnull align 8 dereferenceable(136) %0) #4 comdat align 2 {
  %2 = alloca ptr, align 8
  store ptr %0, ptr %2, align 8, !tbaa !123
  %3 = load ptr, ptr %2, align 8
  %4 = getelementptr inbounds nuw %class.Type, ptr %3, i32 0, i32 0
  %5 = load i32, ptr %4, align 8, !tbaa !97
  %6 = icmp eq i32 %5, 3
  br i1 %6, label %11, label %7

7:                                                ; preds = %1
  %8 = getelementptr inbounds nuw %class.Type, ptr %3, i32 0, i32 0
  %9 = load i32, ptr %8, align 8, !tbaa !97
  %10 = icmp eq i32 %9, 2
  br label %11

11:                                               ; preds = %7, %1
  %12 = phi i1 [ true, %1 ], [ %10, %7 ]
  ret i1 %12
}

; Function Attrs: mustprogress uwtable
define dso_local noundef ptr @_ZN8Variable14CreateVariableERKNSt7__cxx1112basic_stringIcSt11char_traitsIcESaIcEEEPK4TypePK10ExpressionPK12CVQualifiers(ptr noundef nonnull align 8 dereferenceable(32) %0, ptr noundef %1, ptr noundef %2, ptr noundef %3) #6 align 2 personality ptr @__gxx_personality_v0 {
  %5 = alloca ptr, align 8
  %6 = alloca ptr, align 8
  %7 = alloca ptr, align 8
  %8 = alloca ptr, align 8
  %9 = alloca ptr, align 8
  %10 = alloca ptr, align 8
  %11 = alloca ptr, align 8
  %12 = alloca i32, align 4
  %13 = alloca i32, align 4
  store ptr %0, ptr %6, align 8, !tbaa !28
  store ptr %1, ptr %7, align 8, !tbaa !123
  store ptr %2, ptr %8, align 8, !tbaa !159
  store ptr %3, ptr %9, align 8, !tbaa !139
  %14 = load i8, ptr @_ZN8Variable17var_attr_generateE, align 1, !tbaa !79, !range !81, !noundef !82
  %15 = trunc i8 %14 to i1
  br i1 %15, label %17, label %16

16:                                               ; preds = %4
  call void @_Z28InitializeVariableAttributesv()
  store i8 1, ptr @_ZN8Variable17var_attr_generateE, align 1, !tbaa !79
  br label %17

17:                                               ; preds = %16, %4
  %18 = load ptr, ptr %7, align 8, !tbaa !123
  %19 = getelementptr inbounds nuw %class.Type, ptr %18, i32 0, i32 0
  %20 = load i32, ptr %19, align 8, !tbaa !97
  %21 = icmp eq i32 %20, 0
  br i1 %21, label %22, label %23

22:                                               ; preds = %17
  br label %23

23:                                               ; preds = %22, %17
  call void @llvm.lifetime.start.p0(i64 8, ptr %10) #3
  %24 = call noalias noundef nonnull ptr @_Znwm(i64 noundef 200) #18
  %25 = load ptr, ptr %6, align 8, !tbaa !28
  %26 = load ptr, ptr %7, align 8, !tbaa !123
  %27 = load ptr, ptr %8, align 8, !tbaa !159
  %28 = load ptr, ptr %9, align 8, !tbaa !139
  invoke void @_ZN8VariableC1ERKNSt7__cxx1112basic_stringIcSt11char_traitsIcESaIcEEEPK4TypePK10ExpressionPK12CVQualifiers(ptr noundef nonnull align 8 dereferenceable(200) %24, ptr noundef nonnull align 8 dereferenceable(32) %25, ptr noundef %26, ptr noundef %27, ptr noundef %28)
          to label %29 unwind label %35

29:                                               ; preds = %23
  store ptr %24, ptr %10, align 8, !tbaa !40
  %30 = load ptr, ptr %7, align 8, !tbaa !123
  %31 = call noundef zeroext i1 @_ZNK4Type12is_aggregateEv(ptr noundef nonnull align 8 dereferenceable(136) %30)
  br i1 %31, label %32, label %39

32:                                               ; preds = %29
  %33 = load ptr, ptr %10, align 8, !tbaa !40
  %34 = load ptr, ptr %7, align 8, !tbaa !123
  call void @_ZN8Variable17create_field_varsEPK4Type(ptr noundef nonnull align 8 dereferenceable(200) %33, ptr noundef %34)
  br label %39

35:                                               ; preds = %23
  %36 = landingpad { ptr, i32 }
          cleanup
  %37 = extractvalue { ptr, i32 } %36, 0
  store ptr %37, ptr %11, align 8
  %38 = extractvalue { ptr, i32 } %36, 1
  store i32 %38, ptr %12, align 4
  call void @_ZdlPvm(ptr noundef %24, i64 noundef 200) #19
  call void @llvm.lifetime.end.p0(i64 8, ptr %10) #3
  br label %54

39:                                               ; preds = %32, %29
  %40 = call noundef i32 @_ZN5Error9get_errorEv()
  %41 = icmp ne i32 %40, 0
  br i1 %41, label %42, label %50

42:                                               ; preds = %39
  %43 = load ptr, ptr %10, align 8, !tbaa !40
  %44 = icmp eq ptr %43, null
  br i1 %44, label %49, label %45

45:                                               ; preds = %42
  %46 = load ptr, ptr %43, align 8, !tbaa !121
  %47 = getelementptr inbounds ptr, ptr %46, i64 1
  %48 = load ptr, ptr %47, align 8
  call void %48(ptr noundef nonnull align 8 dereferenceable(200) %43) #3
  br label %49

49:                                               ; preds = %45, %42
  store ptr null, ptr %5, align 8
  store i32 1, ptr %13, align 4
  br label %52

50:                                               ; preds = %39
  %51 = load ptr, ptr %10, align 8, !tbaa !40
  store ptr %51, ptr %5, align 8
  store i32 1, ptr %13, align 4
  br label %52

52:                                               ; preds = %50, %49
  call void @llvm.lifetime.end.p0(i64 8, ptr %10) #3
  %53 = load ptr, ptr %5, align 8
  ret ptr %53

54:                                               ; preds = %35
  %55 = load ptr, ptr %11, align 8
  %56 = load i32, ptr %12, align 4
  %57 = insertvalue { ptr, i32 } poison, ptr %55, 0
  %58 = insertvalue { ptr, i32 } %57, i32 %56, 1
  resume { ptr, i32 } %58
}