; Function Attrs: mustprogress uwtable
define dso_local noundef ptr @_ZN8Variable14CreateVariableERKNSt7__cxx1112basic_stringIcSt11char_traitsIcESaIcEEEPK4TypePK10ExpressionPK12CVQualifiers(ptr noundef nonnull readonly align 8 captures(none) dereferenceable(32) %0, ptr noundef %1, ptr noundef %2, ptr noundef %3) local_unnamed_addr #5 align 2 personality ptr @__gxx_personality_v0 {
  %5 = load i8, ptr @_ZN8Variable17var_attr_generateE, align 1, !tbaa !142, !range !104, !noundef !105
  %6 = trunc nuw i8 %5 to i1
  br i1 %6, label %8, label %7

7:                                                ; preds = %4
  tail call void @_Z28InitializeVariableAttributesv()
  store i8 1, ptr @_ZN8Variable17var_attr_generateE, align 1, !tbaa !142
  br label %8

8:                                                ; preds = %7, %4
  %9 = tail call noalias noundef nonnull dereferenceable(200) ptr @_Znwm(i64 noundef 200) #24
  invoke void @_ZN8VariableC2ERKNSt7__cxx1112basic_stringIcSt11char_traitsIcESaIcEEEPK4TypePK10ExpressionPK12CVQualifiers(ptr noundef nonnull align 8 dereferenceable(200) %9, ptr noundef nonnull align 8 dereferenceable(32) %0, ptr noundef %1, ptr noundef %2, ptr noundef %3)
          to label %10 unwind label %14

10:                                               ; preds = %8
  %11 = load i32, ptr %1, align 8, !tbaa !57
  %12 = and i32 %11, -2
  %spec.select.i = icmp eq i32 %12, 2
  br i1 %spec.select.i, label %13, label %16

13:                                               ; preds = %10
  tail call void @_ZN8Variable17create_field_varsEPK4Type(ptr noundef nonnull align 8 dereferenceable(200) %9, ptr noundef nonnull %1)
  br label %16

14:                                               ; preds = %8
  %15 = landingpad { ptr, i32 }
          cleanup
  tail call void @_ZdlPvm(ptr noundef nonnull %9, i64 noundef 200) #23
  resume { ptr, i32 } %15

16:                                               ; preds = %13, %10
  %17 = load i32, ptr @_ZN5Error8r_error_E, align 4, !tbaa !138
  %.not = icmp eq i32 %17, 0
  br i1 %.not, label %22, label %18

18:                                               ; preds = %16
  %19 = load ptr, ptr %9, align 8, !tbaa !97
  %20 = getelementptr inbounds nuw i8, ptr %19, i64 8
  %21 = load ptr, ptr %20, align 8
  tail call void %21(ptr noundef nonnull align 8 dereferenceable(200) %9) #25
  br label %22

22:                                               ; preds = %16, %18
  %.0 = phi ptr [ null, %18 ], [ %9, %16 ]
  ret ptr %.0
}